; Function Attrs: mustprogress nounwind uwtable
define dso_local void @_ZN14b3OptimizedBvhD0Ev(ptr noundef nonnull align 16 dereferenceable(252) %0) unnamed_addr #3 align 2 personality ptr @__gxx_personality_v0 {
  tail call void @_ZN14b3QuantizedBvhD2Ev(ptr noundef nonnull align 16 dereferenceable(252) %0) #14
  invoke void @_Z21b3AlignedFreeInternalPv(ptr noundef nonnull %0)
          to label %_ZN14b3OptimizedBvhdlEPv.exit unwind label %2

2:                                                ; preds = %1
  %3 = landingpad { ptr, i32 }
          catch ptr null
  %4 = extractvalue { ptr, i32 } %3, 0
  tail call void @__clang_call_terminate(ptr %4) #15
  unreachable

_ZN14b3OptimizedBvhdlEPv.exit:                    ; preds = %1
  ret void
}